ARM GAS  C:\Users\PYBL\AppData\Local\Temp\ccQbhlQi.s 			page 1


   1              		.syntax unified
   2              		.cpu cortex-m3
   3              		.fpu softvfp
   4              		.eabi_attribute 20, 1
   5              		.eabi_attribute 21, 1
   6              		.eabi_attribute 23, 3
   7              		.eabi_attribute 24, 1
   8              		.eabi_attribute 25, 1
   9              		.eabi_attribute 26, 1
  10              		.eabi_attribute 30, 1
  11              		.eabi_attribute 34, 1
  12              		.eabi_attribute 18, 4
  13              		.thumb
  14              		.syntax unified
  15              		.file	"main.c"
  16              		.text
  17              	.Ltext0:
  18              		.cfi_sections	.debug_frame
  19              		.section	.text.MCP3421_Start,"ax",%progbits
  20              		.align	2
  21              		.global	MCP3421_Start
  22              		.thumb
  23              		.thumb_func
  24              		.type	MCP3421_Start, %function
  25              	MCP3421_Start:
  26              	.LFB65:
  27              		.file 1 "main.c"
   1:main.c        **** 
   2:main.c        **** 
   3:main.c        **** 
   4:main.c        **** 
   5:main.c        **** #include "project.h"
   6:main.c        **** #include "stdio.h"
   7:main.c        **** 
   8:main.c        **** char buff[20];
   9:main.c        **** 
  10:main.c        **** 
  11:main.c        **** #define addr_MCP3421 0x68
  12:main.c        **** 
  13:main.c        **** 
  14:main.c        **** #define PGAX1  1
  15:main.c        **** #define PGAX2  2
  16:main.c        **** #define PGAX3  3
  17:main.c        **** #define PGAX4  4
  18:main.c        **** 
  19:main.c        **** #define BITS12   12
  20:main.c        **** #define BITS14   14
  21:main.c        **** #define BITS16   16
  22:main.c        **** #define BITS18   18
  23:main.c        **** 
  24:main.c        **** 
  25:main.c        **** //Este tiene 4 registros  -> 0x00 1data byte   01 2nd data byte  02 3rd data byte 03 configuration
  26:main.c        **** uint8 retorno[4];
  27:main.c        **** uint16 data;
  28:main.c        **** uint32 pot;
  29:main.c        **** uint8 PGA, BIT;
  30:main.c        **** 
ARM GAS  C:\Users\PYBL\AppData\Local\Temp\ccQbhlQi.s 			page 2


  31:main.c        **** 
  32:main.c        **** uint8 MCP3421_Start(void);
  33:main.c        **** void MCP3421_GetConfig(void);
  34:main.c        **** void MCP3421_Data(void);
  35:main.c        **** 
  36:main.c        **** 
  37:main.c        **** 
  38:main.c        **** int main(void)
  39:main.c        **** {
  40:main.c        ****     CyGlobalIntEnable;
  41:main.c        ****     I2C_Start();
  42:main.c        ****     if(MCP3421_Start()){
  43:main.c        ****         MCP3421_GetConfig();
  44:main.c        ****         
  45:main.c        ****         
  46:main.c        ****     }else{
  47:main.c        ****         //No esta activo
  48:main.c        ****     }
  49:main.c        ****     
  50:main.c        **** 
  51:main.c        ****     for(;;)
  52:main.c        ****     {
  53:main.c        ****         MCP3421_Data();
  54:main.c        ****         CyDelay(500); 
  55:main.c        ****     }
  56:main.c        **** }
  57:main.c        **** 
  58:main.c        **** 
  59:main.c        **** 
  60:main.c        **** 
  61:main.c        **** uint8 MCP3421_Start(void){
  28              		.loc 1 61 0
  29              		.cfi_startproc
  30              		@ args = 0, pretend = 0, frame = 0
  31              		@ frame_needed = 0, uses_anonymous_args = 0
  32 0000 10B5     		push	{r4, lr}
  33              		.cfi_def_cfa_offset 8
  34              		.cfi_offset 4, -8
  35              		.cfi_offset 14, -4
  62:main.c        ****     uint8 config;
  63:main.c        ****     I2C_MasterReadBuf(addr_MCP3421,retorno,4,I2C_MODE_COMPLETE_XFER);   
  36              		.loc 1 63 0
  37 0002 084C     		ldr	r4, .L5
  38 0004 0023     		movs	r3, #0
  39 0006 0422     		movs	r2, #4
  40 0008 2146     		mov	r1, r4
  41 000a 6820     		movs	r0, #104
  42 000c FFF7FEFF 		bl	I2C_MasterReadBuf
  43              	.LVL0:
  64:main.c        ****     config=retorno[3];
  44              		.loc 1 64 0
  45 0010 E378     		ldrb	r3, [r4, #3]	@ zero_extendqisi2
  46              	.LVL1:
  65:main.c        ****     if(config==0b10010000){
  47              		.loc 1 65 0
  48 0012 902B     		cmp	r3, #144
  49 0014 04D1     		bne	.L3
ARM GAS  C:\Users\PYBL\AppData\Local\Temp\ccQbhlQi.s 			page 3


  66:main.c        ****         CyDelay(100); //Timeout Inicial
  50              		.loc 1 66 0
  51 0016 6420     		movs	r0, #100
  52 0018 FFF7FEFF 		bl	CyDelay
  53              	.LVL2:
  67:main.c        ****         return 1;   //Si esta en configuracion inicial
  54              		.loc 1 67 0
  55 001c 0120     		movs	r0, #1
  56 001e 10BD     		pop	{r4, pc}
  57              	.LVL3:
  58              	.L3:
  68:main.c        ****     }
  69:main.c        ****     return 0;
  59              		.loc 1 69 0
  60 0020 0020     		movs	r0, #0
  70:main.c        **** }
  61              		.loc 1 70 0
  62 0022 10BD     		pop	{r4, pc}
  63              	.L6:
  64              		.align	2
  65              	.L5:
  66 0024 00000000 		.word	retorno
  67              		.cfi_endproc
  68              	.LFE65:
  69              		.size	MCP3421_Start, .-MCP3421_Start
  70              		.section	.text.MCP3421_GetConfig,"ax",%progbits
  71              		.align	2
  72              		.global	MCP3421_GetConfig
  73              		.thumb
  74              		.thumb_func
  75              		.type	MCP3421_GetConfig, %function
  76              	MCP3421_GetConfig:
  77              	.LFB66:
  71:main.c        **** 
  72:main.c        **** void MCP3421_GetConfig(void) {
  78              		.loc 1 72 0
  79              		.cfi_startproc
  80              		@ args = 0, pretend = 0, frame = 0
  81              		@ frame_needed = 0, uses_anonymous_args = 0
  82              		@ link register save eliminated.
  73:main.c        ****     uint8 bit,pga,config;
  74:main.c        ****     config=retorno[3];
  83              		.loc 1 74 0
  84 0000 1C4B     		ldr	r3, .L22
  85 0002 DB78     		ldrb	r3, [r3, #3]	@ zero_extendqisi2
  86              	.LVL4:
  75:main.c        ****     pga = config & 0b00000011;
  87              		.loc 1 75 0
  88 0004 03F00302 		and	r2, r3, #3
  89              	.LVL5:
  76:main.c        ****     bit= config & 0b00001100;
  77:main.c        ****     bit= bit>>2;
  90              		.loc 1 77 0
  91 0008 C3F38103 		ubfx	r3, r3, #2, #2
  92              	.LVL6:
  78:main.c        ****     
  79:main.c        ****     switch(bit) {
ARM GAS  C:\Users\PYBL\AppData\Local\Temp\ccQbhlQi.s 			page 4


  93              		.loc 1 79 0
  94 000c 032B     		cmp	r3, #3
  95 000e 13D8     		bhi	.L8
  96 0010 DFE803F0 		tbb	[pc, r3]
  97              	.L10:
  98 0014 02       		.byte	(.L9-.L10)/2
  99 0015 06       		.byte	(.L11-.L10)/2
 100 0016 0A       		.byte	(.L12-.L10)/2
 101 0017 0E       		.byte	(.L13-.L10)/2
 102              		.p2align 1
 103              	.L9:
  80:main.c        ****         case 0: BIT = BITS12; break;
 104              		.loc 1 80 0
 105 0018 0C21     		movs	r1, #12
 106 001a 174B     		ldr	r3, .L22+4
 107              	.LVL7:
 108 001c 1970     		strb	r1, [r3]
 109 001e 0EE0     		b	.L14
 110              	.LVL8:
 111              	.L11:
  81:main.c        ****         case 1: BIT = BITS14; break;
 112              		.loc 1 81 0
 113 0020 0E21     		movs	r1, #14
 114 0022 154B     		ldr	r3, .L22+4
 115              	.LVL9:
 116 0024 1970     		strb	r1, [r3]
 117 0026 0AE0     		b	.L14
 118              	.LVL10:
 119              	.L12:
  82:main.c        ****         case 2: BIT = BITS16; break;
 120              		.loc 1 82 0
 121 0028 1021     		movs	r1, #16
 122 002a 134B     		ldr	r3, .L22+4
 123              	.LVL11:
 124 002c 1970     		strb	r1, [r3]
 125 002e 06E0     		b	.L14
 126              	.LVL12:
 127              	.L13:
  83:main.c        ****         case 3: BIT = BITS18; break;
 128              		.loc 1 83 0
 129 0030 1221     		movs	r1, #18
 130 0032 114B     		ldr	r3, .L22+4
 131              	.LVL13:
 132 0034 1970     		strb	r1, [r3]
 133 0036 02E0     		b	.L14
 134              	.LVL14:
 135              	.L8:
  84:main.c        ****         default: BIT = BITS12; break; 
 136              		.loc 1 84 0
 137 0038 0C21     		movs	r1, #12
 138 003a 0F4B     		ldr	r3, .L22+4
 139              	.LVL15:
 140 003c 1970     		strb	r1, [r3]
 141              	.L14:
  85:main.c        ****     }
  86:main.c        ****     switch(pga) {
 142              		.loc 1 86 0
ARM GAS  C:\Users\PYBL\AppData\Local\Temp\ccQbhlQi.s 			page 5


 143 003e 032A     		cmp	r2, #3
 144 0040 13D8     		bhi	.L15
 145 0042 DFE802F0 		tbb	[pc, r2]
 146              	.L17:
 147 0046 02       		.byte	(.L16-.L17)/2
 148 0047 06       		.byte	(.L18-.L17)/2
 149 0048 0A       		.byte	(.L19-.L17)/2
 150 0049 0E       		.byte	(.L20-.L17)/2
 151              		.p2align 1
 152              	.L16:
  87:main.c        ****         case 0: PGA = PGAX1; break;
 153              		.loc 1 87 0
 154 004a 0122     		movs	r2, #1
 155              	.LVL16:
 156 004c 0B4B     		ldr	r3, .L22+8
 157 004e 1A70     		strb	r2, [r3]
 158 0050 7047     		bx	lr
 159              	.LVL17:
 160              	.L18:
  88:main.c        ****         case 1: PGA = PGAX2; break;
 161              		.loc 1 88 0
 162 0052 0222     		movs	r2, #2
 163              	.LVL18:
 164 0054 094B     		ldr	r3, .L22+8
 165 0056 1A70     		strb	r2, [r3]
 166 0058 7047     		bx	lr
 167              	.LVL19:
 168              	.L19:
  89:main.c        ****         case 2: PGA = PGAX3; break;
 169              		.loc 1 89 0
 170 005a 0322     		movs	r2, #3
 171              	.LVL20:
 172 005c 074B     		ldr	r3, .L22+8
 173 005e 1A70     		strb	r2, [r3]
 174 0060 7047     		bx	lr
 175              	.LVL21:
 176              	.L20:
  90:main.c        ****         case 3: PGA = PGAX4; break;
 177              		.loc 1 90 0
 178 0062 0422     		movs	r2, #4
 179              	.LVL22:
 180 0064 054B     		ldr	r3, .L22+8
 181 0066 1A70     		strb	r2, [r3]
 182 0068 7047     		bx	lr
 183              	.LVL23:
 184              	.L15:
  91:main.c        ****         default: PGA = PGAX1; break; 
 185              		.loc 1 91 0
 186 006a 0122     		movs	r2, #1
 187              	.LVL24:
 188 006c 034B     		ldr	r3, .L22+8
 189 006e 1A70     		strb	r2, [r3]
 190 0070 7047     		bx	lr
 191              	.L23:
 192 0072 00BF     		.align	2
 193              	.L22:
 194 0074 00000000 		.word	retorno
ARM GAS  C:\Users\PYBL\AppData\Local\Temp\ccQbhlQi.s 			page 6


 195 0078 00000000 		.word	BIT
 196 007c 00000000 		.word	PGA
 197              		.cfi_endproc
 198              	.LFE66:
 199              		.size	MCP3421_GetConfig, .-MCP3421_GetConfig
 200              		.section	.text.MCP3421_Data,"ax",%progbits
 201              		.align	2
 202              		.global	MCP3421_Data
 203              		.thumb
 204              		.thumb_func
 205              		.type	MCP3421_Data, %function
 206              	MCP3421_Data:
 207              	.LFB67:
  92:main.c        ****     }
  93:main.c        **** }
  94:main.c        **** 
  95:main.c        **** 
  96:main.c        **** void MCP3421_Data(void){
 208              		.loc 1 96 0
 209              		.cfi_startproc
 210              		@ args = 0, pretend = 0, frame = 0
 211              		@ frame_needed = 0, uses_anonymous_args = 0
 212 0000 08B5     		push	{r3, lr}
 213              		.cfi_def_cfa_offset 8
 214              		.cfi_offset 3, -8
 215              		.cfi_offset 14, -4
  97:main.c        ****     I2C_MasterReadBuf(addr_MCP3421,retorno,3,I2C_MODE_COMPLETE_XFER);
 216              		.loc 1 97 0
 217 0002 0023     		movs	r3, #0
 218 0004 0322     		movs	r2, #3
 219 0006 1249     		ldr	r1, .L27
 220 0008 6820     		movs	r0, #104
 221 000a FFF7FEFF 		bl	I2C_MasterReadBuf
 222              	.LVL25:
  98:main.c        ****     if(BIT==BITS12){
 223              		.loc 1 98 0
 224 000e 114B     		ldr	r3, .L27+4
 225 0010 1B78     		ldrb	r3, [r3]	@ zero_extendqisi2
 226 0012 0C2B     		cmp	r3, #12
 227 0014 1BD1     		bne	.L24
  99:main.c        ****         if(PGA==PGAX1){
 228              		.loc 1 99 0
 229 0016 104B     		ldr	r3, .L27+8
 230 0018 1B78     		ldrb	r3, [r3]	@ zero_extendqisi2
 231 001a 012B     		cmp	r3, #1
 232 001c 17D1     		bne	.L24
 100:main.c        ****             data = retorno[1] & 0b00001111;
 233              		.loc 1 100 0
 234 001e 0C49     		ldr	r1, .L27
 235 0020 4B78     		ldrb	r3, [r1, #1]	@ zero_extendqisi2
 236 0022 03F00F02 		and	r2, r3, #15
 101:main.c        ****             data = data <<8;
 102:main.c        ****             data |= retorno[2];
 237              		.loc 1 102 0
 238 0026 8B78     		ldrb	r3, [r1, #2]	@ zero_extendqisi2
 239 0028 43EA0223 		orr	r3, r3, r2, lsl #8
 240 002c 0B4A     		ldr	r2, .L27+12
ARM GAS  C:\Users\PYBL\AppData\Local\Temp\ccQbhlQi.s 			page 7


 241 002e 1380     		strh	r3, [r2]	@ movhi
 103:main.c        ****             pot=(data -272) * 5000 /3584;
 242              		.loc 1 103 0
 243 0030 A3F58872 		sub	r2, r3, #272
 244 0034 41F28833 		movw	r3, #5000
 245 0038 03FB02F3 		mul	r3, r3, r2
 246 003c 084A     		ldr	r2, .L27+16
 247 003e 82FB0312 		smull	r1, r2, r2, r3
 248 0042 1A44     		add	r2, r2, r3
 249 0044 DB17     		asrs	r3, r3, #31
 250 0046 C3EBE223 		rsb	r3, r3, r2, asr #11
 251 004a 064A     		ldr	r2, .L27+20
 252 004c 1360     		str	r3, [r2]
 253              	.L24:
 254 004e 08BD     		pop	{r3, pc}
 255              	.L28:
 256              		.align	2
 257              	.L27:
 258 0050 00000000 		.word	retorno
 259 0054 00000000 		.word	BIT
 260 0058 00000000 		.word	PGA
 261 005c 00000000 		.word	data
 262 0060 93244992 		.word	-1840700269
 263 0064 00000000 		.word	pot
 264              		.cfi_endproc
 265              	.LFE67:
 266              		.size	MCP3421_Data, .-MCP3421_Data
 267              		.section	.text.main,"ax",%progbits
 268              		.align	2
 269              		.global	main
 270              		.thumb
 271              		.thumb_func
 272              		.type	main, %function
 273              	main:
 274              	.LFB64:
  39:main.c        ****     CyGlobalIntEnable;
 275              		.loc 1 39 0
 276              		.cfi_startproc
 277              		@ Volatile: function does not return.
 278              		@ args = 0, pretend = 0, frame = 0
 279              		@ frame_needed = 0, uses_anonymous_args = 0
 280 0000 08B5     		push	{r3, lr}
 281              		.cfi_def_cfa_offset 8
 282              		.cfi_offset 3, -8
 283              		.cfi_offset 14, -4
  40:main.c        ****     I2C_Start();
 284              		.loc 1 40 0
 285              		.syntax unified
 286              	@ 40 "main.c" 1
 287 0002 62B6     		CPSIE   i
 288              	@ 0 "" 2
  41:main.c        ****     if(MCP3421_Start()){
 289              		.loc 1 41 0
 290              		.thumb
 291              		.syntax unified
 292 0004 FFF7FEFF 		bl	I2C_Start
 293              	.LVL26:
ARM GAS  C:\Users\PYBL\AppData\Local\Temp\ccQbhlQi.s 			page 8


  42:main.c        ****         MCP3421_GetConfig();
 294              		.loc 1 42 0
 295 0008 FFF7FEFF 		bl	MCP3421_Start
 296              	.LVL27:
 297 000c 08B1     		cbz	r0, .L31
  43:main.c        ****         
 298              		.loc 1 43 0
 299 000e FFF7FEFF 		bl	MCP3421_GetConfig
 300              	.LVL28:
 301              	.L31:
  53:main.c        ****         CyDelay(500); 
 302              		.loc 1 53 0 discriminator 1
 303 0012 FFF7FEFF 		bl	MCP3421_Data
 304              	.LVL29:
  54:main.c        ****     }
 305              		.loc 1 54 0 discriminator 1
 306 0016 4FF4FA70 		mov	r0, #500
 307 001a FFF7FEFF 		bl	CyDelay
 308              	.LVL30:
 309 001e F8E7     		b	.L31
 310              		.cfi_endproc
 311              	.LFE64:
 312              		.size	main, .-main
 313              		.comm	BIT,1,1
 314              		.comm	PGA,1,1
 315              		.comm	pot,4,4
 316              		.comm	data,2,2
 317              		.comm	retorno,4,4
 318              		.comm	buff,20,4
 319              		.text
 320              	.Letext0:
 321              		.file 2 "c:\\program files (x86)\\cypress\\psoc creator\\4.4\\psoc creator\\import\\gnu\\arm\\5.4.
 322              		.file 3 "c:\\program files (x86)\\cypress\\psoc creator\\4.4\\psoc creator\\import\\gnu\\arm\\5.4.
 323              		.file 4 "Generated_Source\\PSoC5/cytypes.h"
 324              		.file 5 "Generated_Source\\PSoC5/core_cm3.h"
 325              		.file 6 "Generated_Source\\PSoC5/I2C.h"
 326              		.file 7 "Generated_Source\\PSoC5/CyLib.h"