ARM GAS  C:\Users\PYBL\AppData\Local\Temp\ccIzn6EP.s 			page 1


   1              		.syntax unified
   2              		.cpu cortex-m3
   3              		.fpu softvfp
   4              		.eabi_attribute 20, 1
   5              		.eabi_attribute 21, 1
   6              		.eabi_attribute 23, 3
   7              		.eabi_attribute 24, 1
   8              		.eabi_attribute 25, 1
   9              		.eabi_attribute 26, 1
  10              		.eabi_attribute 30, 1
  11              		.eabi_attribute 34, 1
  12              		.eabi_attribute 18, 4
  13              		.thumb
  14              		.syntax unified
  15              		.file	"main.c"
  16              		.text
  17              	.Ltext0:
  18              		.cfi_sections	.debug_frame
  19              		.section	.text.main,"ax",%progbits
  20              		.align	2
  21              		.global	main
  22              		.thumb
  23              		.thumb_func
  24              		.type	main, %function
  25              	main:
  26              	.LFB64:
  27              		.file 1 "main.c"
   1:main.c        **** 
   2:main.c        **** #include "project.h"
   3:main.c        **** #include "stdio.h"
   4:main.c        **** 
   5:main.c        **** #include "LXD.h"
   6:main.c        **** char buff[20];
   7:main.c        **** int main(void)
   8:main.c        **** {
  28              		.loc 1 8 0
  29              		.cfi_startproc
  30              		@ args = 0, pretend = 0, frame = 0
  31              		@ frame_needed = 0, uses_anonymous_args = 0
  32 0000 38B5     		push	{r3, r4, r5, lr}
  33              		.cfi_def_cfa_offset 16
  34              		.cfi_offset 3, -16
  35              		.cfi_offset 4, -12
  36              		.cfi_offset 5, -8
  37              		.cfi_offset 14, -4
   9:main.c        ****     CyGlobalIntEnable; 
  38              		.loc 1 9 0
  39              		.syntax unified
  40              	@ 9 "main.c" 1
  41 0002 62B6     		CPSIE   i
  42              	@ 0 "" 2
  10:main.c        ****     I2C_Start();
  43              		.loc 1 10 0
  44              		.thumb
  45              		.syntax unified
  46 0004 FFF7FEFF 		bl	I2C_Start
  47              	.LVL0:
ARM GAS  C:\Users\PYBL\AppData\Local\Temp\ccIzn6EP.s 			page 2


  11:main.c        ****     LXD_Start(0x27);
  48              		.loc 1 11 0
  49 0008 2720     		movs	r0, #39
  50 000a FFF7FEFF 		bl	LXD_Start
  51              	.LVL1:
  12:main.c        ****     LXD_Position(0,0);
  52              		.loc 1 12 0
  53 000e 0021     		movs	r1, #0
  54 0010 0846     		mov	r0, r1
  55 0012 FFF7FEFF 		bl	LXD_Position
  56              	.LVL2:
  13:main.c        ****     sprintf(buff, "Prueba I2C LCD");
  57              		.loc 1 13 0
  58 0016 1A4C     		ldr	r4, .L4
  59 0018 1A4B     		ldr	r3, .L4+4
  60 001a 07CB     		ldmia	r3!, {r0, r1, r2}
  61 001c 2060     		str	r0, [r4]	@ unaligned
  62 001e 6160     		str	r1, [r4, #4]	@ unaligned
  63 0020 A260     		str	r2, [r4, #8]	@ unaligned
  64 0022 1A88     		ldrh	r2, [r3]	@ unaligned
  65 0024 9B78     		ldrb	r3, [r3, #2]	@ zero_extendqisi2
  66 0026 A281     		strh	r2, [r4, #12]	@ unaligned
  67 0028 A373     		strb	r3, [r4, #14]
  14:main.c        ****     LXD_String(buff);
  68              		.loc 1 14 0
  69 002a 2046     		mov	r0, r4
  70 002c FFF7FEFF 		bl	LXD_String
  71              	.LVL3:
  15:main.c        ****     uint8 Cont=0;
  72              		.loc 1 15 0
  73 0030 0024     		movs	r4, #0
  74              	.LVL4:
  75              	.L2:
  16:main.c        ****     for(;;)
  17:main.c        ****     {
  18:main.c        ****         Cont++;
  76              		.loc 1 18 0 discriminator 1
  77 0032 0134     		adds	r4, r4, #1
  78              	.LVL5:
  79 0034 E4B2     		uxtb	r4, r4
  80              	.LVL6:
  19:main.c        ****         LXD_Position(1,0);
  81              		.loc 1 19 0 discriminator 1
  82 0036 0021     		movs	r1, #0
  83 0038 0120     		movs	r0, #1
  84 003a FFF7FEFF 		bl	LXD_Position
  85              	.LVL7:
  20:main.c        ****         sprintf(buff, "Segundos: %d",Cont);
  86              		.loc 1 20 0 discriminator 1
  87 003e 104D     		ldr	r5, .L4
  88 0040 2246     		mov	r2, r4
  89 0042 1149     		ldr	r1, .L4+8
  90 0044 2846     		mov	r0, r5
  91 0046 FFF7FEFF 		bl	sprintf
  92              	.LVL8:
  21:main.c        ****         LXD_String(buff);
  93              		.loc 1 21 0 discriminator 1
ARM GAS  C:\Users\PYBL\AppData\Local\Temp\ccIzn6EP.s 			page 3


  94 004a 2846     		mov	r0, r5
  95 004c FFF7FEFF 		bl	LXD_String
  96              	.LVL9:
  22:main.c        ****         
  23:main.c        ****         LXD_Position(2,0);
  97              		.loc 1 23 0 discriminator 1
  98 0050 0021     		movs	r1, #0
  99 0052 0220     		movs	r0, #2
 100 0054 FFF7FEFF 		bl	LXD_Position
 101              	.LVL10:
  24:main.c        ****         
  25:main.c        ****         LXD_Char('C');
 102              		.loc 1 25 0 discriminator 1
 103 0058 4320     		movs	r0, #67
 104 005a FFF7FEFF 		bl	LXD_Char
 105              	.LVL11:
  26:main.c        ****         LXD_Char('H');
 106              		.loc 1 26 0 discriminator 1
 107 005e 4820     		movs	r0, #72
 108 0060 FFF7FEFF 		bl	LXD_Char
 109              	.LVL12:
  27:main.c        ****         LXD_Char('A');
 110              		.loc 1 27 0 discriminator 1
 111 0064 4120     		movs	r0, #65
 112 0066 FFF7FEFF 		bl	LXD_Char
 113              	.LVL13:
  28:main.c        ****         LXD_Char('R');
 114              		.loc 1 28 0 discriminator 1
 115 006a 5220     		movs	r0, #82
 116 006c FFF7FEFF 		bl	LXD_Char
 117              	.LVL14:
  29:main.c        ****         LXD_Char(0XFF);
 118              		.loc 1 29 0 discriminator 1
 119 0070 FF20     		movs	r0, #255
 120 0072 FFF7FEFF 		bl	LXD_Char
 121              	.LVL15:
  30:main.c        ****         CyDelay(1000);
 122              		.loc 1 30 0 discriminator 1
 123 0076 4FF47A70 		mov	r0, #1000
 124 007a FFF7FEFF 		bl	CyDelay
 125              	.LVL16:
 126 007e D8E7     		b	.L2
 127              	.L5:
 128              		.align	2
 129              	.L4:
 130 0080 00000000 		.word	buff
 131 0084 00000000 		.word	.LC0
 132 0088 10000000 		.word	.LC1
 133              		.cfi_endproc
 134              	.LFE64:
 135              		.size	main, .-main
 136              		.comm	buff,20,4
 137              		.comm	LXD_config,8,4
 138              		.section	.rodata.str1.4,"aMS",%progbits,1
 139              		.align	2
 140              	.LC0:
 141 0000 50727565 		.ascii	"Prueba I2C LCD\000"
ARM GAS  C:\Users\PYBL\AppData\Local\Temp\ccIzn6EP.s 			page 4


 141      62612049 
 141      3243204C 
 141      434400
 142 000f 00       		.space	1
 143              	.LC1:
 144 0010 53656775 		.ascii	"Segundos: %d\000"
 144      6E646F73 
 144      3A202564 
 144      00
 145              		.text
 146              	.Letext0:
 147              		.file 2 "c:\\program files (x86)\\cypress\\psoc creator\\4.4\\psoc creator\\import\\gnu\\arm\\5.4.
 148              		.file 3 "c:\\program files (x86)\\cypress\\psoc creator\\4.4\\psoc creator\\import\\gnu\\arm\\5.4.
 149              		.file 4 "Generated_Source\\PSoC5/cytypes.h"
 150              		.file 5 "LXD.h"
 151              		.file 6 "Generated_Source\\PSoC5/core_cm3.h"
 152              		.file 7 "Generated_Source\\PSoC5/I2C.h"
 153              		.file 8 "c:\\program files (x86)\\cypress\\psoc creator\\4.4\\psoc creator\\import\\gnu\\arm\\5.4.
 154              		.file 9 "Generated_Source\\PSoC5/CyLib.h"