ARM GAS  C:\Users\PYBL\AppData\Local\Temp\cchN8wde.s 			page 1


   1              		.syntax unified
   2              		.cpu cortex-m3
   3              		.fpu softvfp
   4              		.eabi_attribute 20, 1
   5              		.eabi_attribute 21, 1
   6              		.eabi_attribute 23, 3
   7              		.eabi_attribute 24, 1
   8              		.eabi_attribute 25, 1
   9              		.eabi_attribute 26, 1
  10              		.eabi_attribute 30, 1
  11              		.eabi_attribute 34, 1
  12              		.eabi_attribute 18, 4
  13              		.thumb
  14              		.syntax unified
  15              		.file	"main.c"
  16              		.text
  17              	.Ltext0:
  18              		.cfi_sections	.debug_frame
  19              		.section	.text.main,"ax",%progbits
  20              		.align	2
  21              		.global	main
  22              		.thumb
  23              		.thumb_func
  24              		.type	main, %function
  25              	main:
  26              	.LFB63:
  27              		.file 1 "main.c"
   1:main.c        **** 
   2:main.c        **** #include "project.h"
   3:main.c        **** 
   4:main.c        **** 
   5:main.c        **** /*
   6:main.c        **** 
   7:main.c        **** ESTE CODIGO NO ESTA PROBADO, ES DIRECTAMENTE LO QUE DICE EL DATASHEET
   8:main.c        **** Y DEBE DE SER MODIFICADO POR CADA DIPOSITIVO I2C, ES DECIR:
   9:main.c        **** QUE LA LECTURA Y ESCRITURA SEA INDEPENDIENTE
  10:main.c        **** 
  11:main.c        **** POR LO CUAL ESTO ES TEORICO, PARA DISPOSITIVOS I2C AVANZADOS, 
  12:main.c        **** IMUS, ACCEL, MAGNETO (Con muchos registros)
  13:main.c        **** */
  14:main.c        **** 
  15:main.c        **** 
  16:main.c        **** /* lectura de registros*/
  17:main.c        **** void lecturaRegistros(uint8 addr_slave, uint8 reg, uint8 cadena, uint8* retorno);
  18:main.c        **** 
  19:main.c        **** 
  20:main.c        **** int main(void)
  21:main.c        **** {
  28              		.loc 1 21 0
  29              		.cfi_startproc
  30              		@ Volatile: function does not return.
  31              		@ args = 0, pretend = 0, frame = 0
  32              		@ frame_needed = 0, uses_anonymous_args = 0
  33              		@ link register save eliminated.
  22:main.c        ****     CyGlobalIntEnable; 
  34              		.loc 1 22 0
  35              		.syntax unified
ARM GAS  C:\Users\PYBL\AppData\Local\Temp\cchN8wde.s 			page 2


  36              	@ 22 "main.c" 1
  37 0000 62B6     		CPSIE   i
  38              	@ 0 "" 2
  39              		.thumb
  40              		.syntax unified
  41              	.L2:
  42 0002 FEE7     		b	.L2
  43              		.cfi_endproc
  44              	.LFE63:
  45              		.size	main, .-main
  46              		.section	.text.lecturaRegistros,"ax",%progbits
  47              		.align	2
  48              		.global	lecturaRegistros
  49              		.thumb
  50              		.thumb_func
  51              		.type	lecturaRegistros, %function
  52              	lecturaRegistros:
  53              	.LFB64:
  23:main.c        **** 
  24:main.c        ****     for(;;)
  25:main.c        ****     {
  26:main.c        ****         
  27:main.c        ****     }
  28:main.c        **** }
  29:main.c        **** 
  30:main.c        **** //Este dependerá de cada dispostivo I2C y de como funcione
  31:main.c        **** void lecturaRegistros(uint8 addr_slave, uint8 reg, uint8 cadena, uint8* retorno){
  54              		.loc 1 31 0
  55              		.cfi_startproc
  56              		@ args = 0, pretend = 0, frame = 0
  57              		@ frame_needed = 0, uses_anonymous_args = 0
  58              	.LVL0:
  59 0000 F8B5     		push	{r3, r4, r5, r6, r7, lr}
  60              		.cfi_def_cfa_offset 24
  61              		.cfi_offset 3, -24
  62              		.cfi_offset 4, -20
  63              		.cfi_offset 5, -16
  64              		.cfi_offset 6, -12
  65              		.cfi_offset 7, -8
  66              		.cfi_offset 14, -4
  67 0002 0746     		mov	r7, r0
  68 0004 0C46     		mov	r4, r1
  69 0006 1546     		mov	r5, r2
  70 0008 1E46     		mov	r6, r3
  32:main.c        ****     uint8 estado;
  33:main.c        **** 
  34:main.c        ****     //Escritura
  35:main.c        ****     estado= I2C_MasterSendStart(addr_slave, I2C_WRITE_XFER_MODE);
  71              		.loc 1 35 0
  72 000a 0021     		movs	r1, #0
  73              	.LVL1:
  74 000c FFF7FEFF 		bl	I2C_MasterSendStart
  75              	.LVL2:
  36:main.c        ****     if(I2C_MSTR_NO_ERROR ==estado){
  76              		.loc 1 36 0
  77 0010 20B9     		cbnz	r0, .L4
  78              	.L5:
ARM GAS  C:\Users\PYBL\AppData\Local\Temp\cchN8wde.s 			page 3


  37:main.c        ****         for(;;){
  38:main.c        ****             estado= I2C_MasterWriteByte(reg);
  79              		.loc 1 38 0
  80 0012 2046     		mov	r0, r4
  81              	.LVL3:
  82 0014 FFF7FEFF 		bl	I2C_MasterWriteByte
  83              	.LVL4:
  39:main.c        ****             if(estado != I2C_MSTR_NO_ERROR){ 
  84              		.loc 1 39 0
  85 0018 0028     		cmp	r0, #0
  86 001a FAD0     		beq	.L5
  87              	.L4:
  40:main.c        ****                 break;
  41:main.c        ****             }
  42:main.c        ****         }
  43:main.c        ****     }
  44:main.c        ****     I2C_MasterSendStop(); 
  88              		.loc 1 44 0
  89 001c FFF7FEFF 		bl	I2C_MasterSendStop
  90              	.LVL5:
  45:main.c        **** 
  46:main.c        ****     //Lectura
  47:main.c        ****     estado= I2C_MasterSendStart(addr_slave, I2C_READ_XFER_MODE);
  91              		.loc 1 47 0
  92 0020 0121     		movs	r1, #1
  93 0022 3846     		mov	r0, r7
  94 0024 FFF7FEFF 		bl	I2C_MasterSendStart
  95              	.LVL6:
  48:main.c        ****     if(I2C_MSTR_NO_ERROR==estado){
  96              		.loc 1 48 0
  97 0028 78B1     		cbz	r0, .L11
  98              	.LBB2:
  99 002a 11E0     		b	.L7
 100              	.LVL7:
 101              	.L10:
  49:main.c        ****         for(uint8 i=0; i<cadena;i++){
  50:main.c        ****             if(i<cadena-1){
 102              		.loc 1 50 0
 103 002c 6B1E     		subs	r3, r5, #1
 104 002e 9C42     		cmp	r4, r3
 105 0030 04DA     		bge	.L8
  51:main.c        ****                 retorno[i]= I2C_MasterReadByte(I2C_ACK_DATA);
 106              		.loc 1 51 0
 107 0032 0120     		movs	r0, #1
 108 0034 FFF7FEFF 		bl	I2C_MasterReadByte
 109              	.LVL8:
 110 0038 3055     		strb	r0, [r6, r4]
 111 003a 03E0     		b	.L9
 112              	.L8:
  52:main.c        ****             }else{
  53:main.c        ****                 retorno[i]= I2C_MasterReadByte(I2C_NAK_DATA);
 113              		.loc 1 53 0
 114 003c 0020     		movs	r0, #0
 115 003e FFF7FEFF 		bl	I2C_MasterReadByte
 116              	.LVL9:
 117 0042 3055     		strb	r0, [r6, r4]
 118              	.L9:
ARM GAS  C:\Users\PYBL\AppData\Local\Temp\cchN8wde.s 			page 4


  49:main.c        ****             if(i<cadena-1){
 119              		.loc 1 49 0 discriminator 2
 120 0044 0134     		adds	r4, r4, #1
 121              	.LVL10:
 122 0046 E4B2     		uxtb	r4, r4
 123              	.LVL11:
 124 0048 00E0     		b	.L6
 125              	.LVL12:
 126              	.L11:
 127              	.LBE2:
 128 004a 0024     		movs	r4, #0
 129              	.LVL13:
 130              	.L6:
 131              	.LBB3:
  49:main.c        ****             if(i<cadena-1){
 132              		.loc 1 49 0 is_stmt 0 discriminator 1
 133 004c AC42     		cmp	r4, r5
 134 004e EDD3     		bcc	.L10
 135              	.LVL14:
 136              	.L7:
 137              	.LBE3:
  54:main.c        ****             }
  55:main.c        ****         }
  56:main.c        ****     }
  57:main.c        ****     I2C_MasterSendStop();
 138              		.loc 1 57 0 is_stmt 1
 139 0050 FFF7FEFF 		bl	I2C_MasterSendStop
 140              	.LVL15:
 141 0054 F8BD     		pop	{r3, r4, r5, r6, r7, pc}
 142              		.cfi_endproc
 143              	.LFE64:
 144              		.size	lecturaRegistros, .-lecturaRegistros
 145 0056 00BF     		.text
 146              	.Letext0:
 147              		.file 2 "c:\\program files (x86)\\cypress\\psoc creator\\4.4\\psoc creator\\import\\gnu\\arm\\5.4.
 148              		.file 3 "c:\\program files (x86)\\cypress\\psoc creator\\4.4\\psoc creator\\import\\gnu\\arm\\5.4.
 149              		.file 4 "Generated_Source\\PSoC5/cytypes.h"
 150              		.file 5 "Generated_Source\\PSoC5/I2C.h"
 151              		.file 6 "Generated_Source\\PSoC5/core_cm3.h"