ARM GAS  C:\Users\PYBL\AppData\Local\Temp\cc31ktf8.s 			page 1


   1              		.syntax unified
   2              		.cpu cortex-m3
   3              		.fpu softvfp
   4              		.eabi_attribute 20, 1
   5              		.eabi_attribute 21, 1
   6              		.eabi_attribute 23, 3
   7              		.eabi_attribute 24, 1
   8              		.eabi_attribute 25, 1
   9              		.eabi_attribute 26, 1
  10              		.eabi_attribute 30, 1
  11              		.eabi_attribute 34, 1
  12              		.eabi_attribute 18, 4
  13              		.thumb
  14              		.syntax unified
  15              		.file	"main.c"
  16              		.text
  17              	.Ltext0:
  18              		.cfi_sections	.debug_frame
  19              		.section	.text.fisrTimer,"ax",%progbits
  20              		.align	2
  21              		.global	fisrTimer
  22              		.thumb
  23              		.thumb_func
  24              		.type	fisrTimer, %function
  25              	fisrTimer:
  26              	.LFB64:
  27              		.file 1 "main.c"
   1:main.c        **** 
   2:main.c        **** #include "project.h"
   3:main.c        **** 
   4:main.c        **** CY_ISR_PROTO(fisrTimer);
   5:main.c        **** 
   6:main.c        **** int8 Calculos=0;
   7:main.c        **** int8 status=1;
   8:main.c        **** uint32 mod=16777216; // modulador de 24 bits
   9:main.c        **** uint32 valor1=0;
  10:main.c        **** uint32 valor2=0;
  11:main.c        **** uint32 ovf1=0;
  12:main.c        **** uint32 CiclosPeriodo=0;
  13:main.c        **** uint32 Tiempo=0;
  14:main.c        **** uint32 cont=0;
  15:main.c        **** uint32 Mili=0;
  16:main.c        **** 
  17:main.c        **** int main(void)
  18:main.c        **** {
  19:main.c        ****     CyGlobalIntEnable; 
  20:main.c        ****     Timer_Start();
  21:main.c        ****     isrTimer_StartEx(fisrTimer);
  22:main.c        **** 
  23:main.c        ****     for(;;)
  24:main.c        ****     {
  25:main.c        ****         if(Calculos){
  26:main.c        ****             CiclosPeriodo=(uint32)((uint32)(ovf1)*mod+valor1-valor2);//Se obtiene numero de conteos
  27:main.c        ****             Tiempo = CiclosPeriodo/24;//Tiempo en us, la frecuencia de conteo está a 24MHz
  28:main.c        ****             Mili=Tiempo/1000000;
  29:main.c        ****             Calculos=0;
  30:main.c        ****             ovf1=0;
ARM GAS  C:\Users\PYBL\AppData\Local\Temp\cc31ktf8.s 			page 2


  31:main.c        ****             cont=0;
  32:main.c        ****             CyDelay(200);
  33:main.c        ****             Timer_Start();
  34:main.c        ****         }
  35:main.c        ****     }
  36:main.c        **** }
  37:main.c        **** 
  38:main.c        **** CY_ISR_PROTO(fisrTimer){
  28              		.loc 1 38 0
  29              		.cfi_startproc
  30              		@ args = 0, pretend = 0, frame = 0
  31              		@ frame_needed = 0, uses_anonymous_args = 0
  32 0000 10B5     		push	{r4, lr}
  33              		.cfi_def_cfa_offset 8
  34              		.cfi_offset 4, -8
  35              		.cfi_offset 14, -4
  39:main.c        ****     status=Timer_ReadStatusRegister(); //Leer el registro de estado
  36              		.loc 1 39 0
  37 0002 FFF7FEFF 		bl	Timer_ReadStatusRegister
  38              	.LVL0:
  39 0006 134B     		ldr	r3, .L6
  40 0008 1870     		strb	r0, [r3]
  40:main.c        ****     if(status & Timer_STATUS_TC){
  41              		.loc 1 40 0
  42 000a 10F0010F 		tst	r0, #1
  43 000e 07D0     		beq	.L2
  41:main.c        ****         if(cont==1 ){
  44              		.loc 1 41 0
  45 0010 114B     		ldr	r3, .L6+4
  46 0012 1B68     		ldr	r3, [r3]
  47 0014 012B     		cmp	r3, #1
  48 0016 03D1     		bne	.L2
  42:main.c        ****             ovf1++;
  49              		.loc 1 42 0
  50 0018 0F4A     		ldr	r2, .L6+4
  51 001a 5368     		ldr	r3, [r2, #4]
  52 001c 0133     		adds	r3, r3, #1
  53 001e 5360     		str	r3, [r2, #4]
  54              	.L2:
  43:main.c        ****         }
  44:main.c        ****     }
  45:main.c        ****     if(status & Timer_STATUS_CAPTURE){ 
  55              		.loc 1 45 0
  56 0020 10F0020F 		tst	r0, #2
  57 0024 14D0     		beq	.L1
  46:main.c        ****         if(cont==0){
  58              		.loc 1 46 0
  59 0026 0C4B     		ldr	r3, .L6+4
  60 0028 1B68     		ldr	r3, [r3]
  61 002a 3BB9     		cbnz	r3, .L4
  47:main.c        ****             valor1=Timer_ReadCapture();//Obtiene primer valor
  62              		.loc 1 47 0
  63 002c FFF7FEFF 		bl	Timer_ReadCapture
  64              	.LVL1:
  65 0030 094B     		ldr	r3, .L6+4
  66 0032 9860     		str	r0, [r3, #8]
  48:main.c        ****             cont++;
ARM GAS  C:\Users\PYBL\AppData\Local\Temp\cc31ktf8.s 			page 3


  67              		.loc 1 48 0
  68 0034 1A68     		ldr	r2, [r3]
  69 0036 0132     		adds	r2, r2, #1
  70 0038 1A60     		str	r2, [r3]
  71 003a 10BD     		pop	{r4, pc}
  72              	.L4:
  49:main.c        ****         }
  50:main.c        ****     else if(cont==1){
  73              		.loc 1 50 0
  74 003c 012B     		cmp	r3, #1
  75 003e 07D1     		bne	.L1
  51:main.c        ****         valor2=Timer_ReadCapture(); //Obtiene segundo valor
  76              		.loc 1 51 0
  77 0040 FFF7FEFF 		bl	Timer_ReadCapture
  78              	.LVL2:
  79 0044 044C     		ldr	r4, .L6+4
  80 0046 E060     		str	r0, [r4, #12]
  52:main.c        ****         Timer_Stop(); //Detiene Timer
  81              		.loc 1 52 0
  82 0048 FFF7FEFF 		bl	Timer_Stop
  83              	.LVL3:
  53:main.c        ****         Calculos=1;
  84              		.loc 1 53 0
  85 004c 0123     		movs	r3, #1
  86 004e 2374     		strb	r3, [r4, #16]
  87              	.L1:
  88 0050 10BD     		pop	{r4, pc}
  89              	.L7:
  90 0052 00BF     		.align	2
  91              	.L6:
  92 0054 00000000 		.word	.LANCHOR0
  93 0058 00000000 		.word	.LANCHOR1
  94              		.cfi_endproc
  95              	.LFE64:
  96              		.size	fisrTimer, .-fisrTimer
  97              		.section	.text.main,"ax",%progbits
  98              		.align	2
  99              		.global	main
 100              		.thumb
 101              		.thumb_func
 102              		.type	main, %function
 103              	main:
 104              	.LFB63:
  18:main.c        ****     CyGlobalIntEnable; 
 105              		.loc 1 18 0
 106              		.cfi_startproc
 107              		@ Volatile: function does not return.
 108              		@ args = 0, pretend = 0, frame = 0
 109              		@ frame_needed = 0, uses_anonymous_args = 0
 110 0000 08B5     		push	{r3, lr}
 111              		.cfi_def_cfa_offset 8
 112              		.cfi_offset 3, -8
 113              		.cfi_offset 14, -4
  19:main.c        ****     Timer_Start();
 114              		.loc 1 19 0
 115              		.syntax unified
 116              	@ 19 "main.c" 1
ARM GAS  C:\Users\PYBL\AppData\Local\Temp\cc31ktf8.s 			page 4


 117 0002 62B6     		CPSIE   i
 118              	@ 0 "" 2
  20:main.c        ****     isrTimer_StartEx(fisrTimer);
 119              		.loc 1 20 0
 120              		.thumb
 121              		.syntax unified
 122 0004 FFF7FEFF 		bl	Timer_Start
 123              	.LVL4:
  21:main.c        **** 
 124              		.loc 1 21 0
 125 0008 1248     		ldr	r0, .L12
 126 000a FFF7FEFF 		bl	isrTimer_StartEx
 127              	.LVL5:
 128              	.L9:
  25:main.c        ****             CiclosPeriodo=(uint32)((uint32)(ovf1)*mod+valor1-valor2);//Se obtiene numero de conteos
 129              		.loc 1 25 0
 130 000e 124B     		ldr	r3, .L12+4
 131 0010 93F91030 		ldrsb	r3, [r3, #16]
 132 0014 002B     		cmp	r3, #0
 133 0016 FAD0     		beq	.L9
  26:main.c        ****             Tiempo = CiclosPeriodo/24;//Tiempo en us, la frecuencia de conteo está a 24MHz
 134              		.loc 1 26 0
 135 0018 0F49     		ldr	r1, .L12+4
 136 001a 4A68     		ldr	r2, [r1, #4]
 137 001c 0F4B     		ldr	r3, .L12+8
 138 001e 5868     		ldr	r0, [r3, #4]
 139 0020 8B68     		ldr	r3, [r1, #8]
 140 0022 00FB0232 		mla	r2, r0, r2, r3
 141 0026 CB68     		ldr	r3, [r1, #12]
 142 0028 D31A     		subs	r3, r2, r3
 143 002a 4B61     		str	r3, [r1, #20]
  27:main.c        ****             Mili=Tiempo/1000000;
 144              		.loc 1 27 0
 145 002c 0C4A     		ldr	r2, .L12+12
 146 002e A2FB0323 		umull	r2, r3, r2, r3
 147 0032 1B09     		lsrs	r3, r3, #4
 148 0034 8B61     		str	r3, [r1, #24]
  28:main.c        ****             Calculos=0;
 149              		.loc 1 28 0
 150 0036 0B4A     		ldr	r2, .L12+16
 151 0038 A2FB0323 		umull	r2, r3, r2, r3
 152 003c 9B0C     		lsrs	r3, r3, #18
 153 003e CB61     		str	r3, [r1, #28]
  29:main.c        ****             ovf1=0;
 154              		.loc 1 29 0
 155 0040 0023     		movs	r3, #0
 156 0042 0B74     		strb	r3, [r1, #16]
  30:main.c        ****             cont=0;
 157              		.loc 1 30 0
 158 0044 4B60     		str	r3, [r1, #4]
  31:main.c        ****             CyDelay(200);
 159              		.loc 1 31 0
 160 0046 0B60     		str	r3, [r1]
  32:main.c        ****             Timer_Start();
 161              		.loc 1 32 0
 162 0048 C820     		movs	r0, #200
 163 004a FFF7FEFF 		bl	CyDelay
ARM GAS  C:\Users\PYBL\AppData\Local\Temp\cc31ktf8.s 			page 5


 164              	.LVL6:
  33:main.c        ****         }
 165              		.loc 1 33 0
 166 004e FFF7FEFF 		bl	Timer_Start
 167              	.LVL7:
 168 0052 DCE7     		b	.L9
 169              	.L13:
 170              		.align	2
 171              	.L12:
 172 0054 00000000 		.word	fisrTimer
 173 0058 00000000 		.word	.LANCHOR1
 174 005c 00000000 		.word	.LANCHOR0
 175 0060 ABAAAAAA 		.word	-1431655765
 176 0064 83DE1B43 		.word	1125899907
 177              		.cfi_endproc
 178              	.LFE63:
 179              		.size	main, .-main
 180              		.global	Mili
 181              		.global	cont
 182              		.global	Tiempo
 183              		.global	CiclosPeriodo
 184              		.global	ovf1
 185              		.global	valor2
 186              		.global	valor1
 187              		.global	mod
 188              		.global	status
 189              		.global	Calculos
 190              		.data
 191              		.align	2
 192              		.set	.LANCHOR0,. + 0
 193              		.type	status, %object
 194              		.size	status, 1
 195              	status:
 196 0000 01       		.byte	1
 197 0001 000000   		.space	3
 198              		.type	mod, %object
 199              		.size	mod, 4
 200              	mod:
 201 0004 00000001 		.word	16777216
 202              		.bss
 203              		.align	2
 204              		.set	.LANCHOR1,. + 0
 205              		.type	cont, %object
 206              		.size	cont, 4
 207              	cont:
 208 0000 00000000 		.space	4
 209              		.type	ovf1, %object
 210              		.size	ovf1, 4
 211              	ovf1:
 212 0004 00000000 		.space	4
 213              		.type	valor1, %object
 214              		.size	valor1, 4
 215              	valor1:
 216 0008 00000000 		.space	4
 217              		.type	valor2, %object
 218              		.size	valor2, 4
 219              	valor2:
ARM GAS  C:\Users\PYBL\AppData\Local\Temp\cc31ktf8.s 			page 6


 220 000c 00000000 		.space	4
 221              		.type	Calculos, %object
 222              		.size	Calculos, 1
 223              	Calculos:
 224 0010 00       		.space	1
 225 0011 000000   		.space	3
 226              		.type	CiclosPeriodo, %object
 227              		.size	CiclosPeriodo, 4
 228              	CiclosPeriodo:
 229 0014 00000000 		.space	4
 230              		.type	Tiempo, %object
 231              		.size	Tiempo, 4
 232              	Tiempo:
 233 0018 00000000 		.space	4
 234              		.type	Mili, %object
 235              		.size	Mili, 4
 236              	Mili:
 237 001c 00000000 		.space	4
 238              		.text
 239              	.Letext0:
 240              		.file 2 "c:\\program files (x86)\\cypress\\psoc creator\\4.4\\psoc creator\\import\\gnu\\arm\\5.4.
 241              		.file 3 "c:\\program files (x86)\\cypress\\psoc creator\\4.4\\psoc creator\\import\\gnu\\arm\\5.4.
 242              		.file 4 "Generated_Source\\PSoC5/cytypes.h"
 243              		.file 5 "Generated_Source\\PSoC5/core_cm3.h"
 244              		.file 6 "Generated_Source\\PSoC5/Timer.h"
 245              		.file 7 "Generated_Source\\PSoC5/isrTimer.h"
 246              		.file 8 "Generated_Source\\PSoC5/CyLib.h"