ARM GAS  C:\Users\PYBL\AppData\Local\Temp\ccJ1nofP.s 			page 1


   1              		.syntax unified
   2              		.cpu cortex-m3
   3              		.fpu softvfp
   4              		.eabi_attribute 20, 1
   5              		.eabi_attribute 21, 1
   6              		.eabi_attribute 23, 3
   7              		.eabi_attribute 24, 1
   8              		.eabi_attribute 25, 1
   9              		.eabi_attribute 26, 1
  10              		.eabi_attribute 30, 1
  11              		.eabi_attribute 34, 1
  12              		.eabi_attribute 18, 4
  13              		.thumb
  14              		.syntax unified
  15              		.file	"main.c"
  16              		.text
  17              	.Ltext0:
  18              		.cfi_sections	.debug_frame
  19              		.section	.text.fisr_Teclado,"ax",%progbits
  20              		.align	2
  21              		.global	fisr_Teclado
  22              		.thumb
  23              		.thumb_func
  24              		.type	fisr_Teclado, %function
  25              	fisr_Teclado:
  26              	.LFB64:
  27              		.file 1 "main.c"
   1:main.c        **** 
   2:main.c        **** #include "project.h"
   3:main.c        **** 
   4:main.c        **** 
   5:main.c        **** uint8 bandTec=0;
   6:main.c        **** uint8 bandCont=0;
   7:main.c        **** CY_ISR_PROTO(fisr_Teclado);
   8:main.c        **** CY_ISR_PROTO(fisr_CONT);
   9:main.c        **** uint8 tinsta=0;
  10:main.c        **** uint8 pulsaciones=0;
  11:main.c        **** uint8 lugar=0;
  12:main.c        **** uint32 mili=0;
  13:main.c        **** uint32 seg=0;
  14:main.c        **** 
  15:main.c        **** 
  16:main.c        **** uint8 KEY[9][3] = {
  17:main.c        **** 		{'A','B','C'}, //0
  18:main.c        **** 		{'D','E','F'},
  19:main.c        **** 		{'G','H','I'},
  20:main.c        **** 		{'J','K','L'},//3
  21:main.c        ****         {'M','N','O'},
  22:main.c        ****         {'P','Q','R'},//5
  23:main.c        ****         {'S','T','U'},//6
  24:main.c        ****         {'V','W','X'},
  25:main.c        ****         {'Y','Z',' '},
  26:main.c        ****   	};
  27:main.c        **** int main(void)
  28:main.c        **** {
  29:main.c        ****     Teclado_Start();
  30:main.c        ****     LCD_Start();
ARM GAS  C:\Users\PYBL\AppData\Local\Temp\ccJ1nofP.s 			page 2


  31:main.c        ****     Counter_Start();
  32:main.c        ****     isrTEC_StartEx(fisr_Teclado);
  33:main.c        ****     isrCONT_StartEx(fisr_CONT);
  34:main.c        ****     CyGlobalIntEnable;
  35:main.c        ****   
  36:main.c        ****     for(;;)
  37:main.c        ****     {
  38:main.c        ****         if(bandCont){
  39:main.c        ****             bandCont=0;
  40:main.c        ****             mili++;
  41:main.c        ****             if(mili%1000==0){
  42:main.c        ****                 seg++;
  43:main.c        ****                 LCD_Position(3,0);
  44:main.c        ****                 LCD_PrintNumber(seg);
  45:main.c        ****             }
  46:main.c        ****             
  47:main.c        ****             if(mili==5000){
  48:main.c        ****                 lugar++;
  49:main.c        ****                 mili=0;
  50:main.c        ****                 seg=0;
  51:main.c        ****             }
  52:main.c        ****         }
  53:main.c        ****             
  54:main.c        ****         if(bandTec){
  55:main.c        ****             bandTec=0;
  56:main.c        ****             tinsta=Teclado_AsignarTecla();
  57:main.c        ****             pulsaciones++;
  58:main.c        ****             
  59:main.c        ****             mili=0;
  60:main.c        ****             if(tinsta=='7'){
  61:main.c        ****                 LCD_Position(0,lugar);
  62:main.c        ****                 LCD_PutChar(KEY[6][pulsaciones-1]);
  63:main.c        ****                 if(pulsaciones==3){
  64:main.c        ****                     pulsaciones=0;
  65:main.c        ****                 }
  66:main.c        ****             }
  67:main.c        ****             if(tinsta=='4'){
  68:main.c        ****                 LCD_Position(0,lugar);
  69:main.c        ****                 LCD_PutChar(KEY[3][pulsaciones-1]);
  70:main.c        ****                 if(pulsaciones==3){
  71:main.c        ****                     pulsaciones=0;
  72:main.c        ****                 }
  73:main.c        ****             }
  74:main.c        ****             if(tinsta=='1'){
  75:main.c        ****                 LCD_Position(0,lugar);
  76:main.c        ****                 LCD_PutChar(KEY[0][pulsaciones-1]);
  77:main.c        ****                 if(pulsaciones==3){
  78:main.c        ****                     pulsaciones=0;
  79:main.c        ****                 }
  80:main.c        ****             }
  81:main.c        ****             if(tinsta=='*'){
  82:main.c        ****                 LCD_Position(0,lugar);
  83:main.c        ****                 LCD_PutChar(KEY[5][pulsaciones-1]);
  84:main.c        ****                 if(pulsaciones==3){
  85:main.c        ****                     pulsaciones=0;
  86:main.c        ****                 }
  87:main.c        ****             }
ARM GAS  C:\Users\PYBL\AppData\Local\Temp\ccJ1nofP.s 			page 3


  88:main.c        ****             
  89:main.c        **** 
  90:main.c        **** 
  91:main.c        **** 
  92:main.c        ****                 
  93:main.c        ****         }
  94:main.c        ****       
  95:main.c        ****     }
  96:main.c        **** }
  97:main.c        **** 
  98:main.c        **** CY_ISR_PROTO(fisr_Teclado){
  28              		.loc 1 98 0
  29              		.cfi_startproc
  30              		@ args = 0, pretend = 0, frame = 0
  31              		@ frame_needed = 0, uses_anonymous_args = 0
  32              		@ link register save eliminated.
  99:main.c        ****     bandTec=1;
  33              		.loc 1 99 0
  34 0000 0122     		movs	r2, #1
  35 0002 014B     		ldr	r3, .L2
  36 0004 1A70     		strb	r2, [r3]
  37 0006 7047     		bx	lr
  38              	.L3:
  39              		.align	2
  40              	.L2:
  41 0008 00000000 		.word	.LANCHOR0
  42              		.cfi_endproc
  43              	.LFE64:
  44              		.size	fisr_Teclado, .-fisr_Teclado
  45              		.section	.text.fisr_CONT,"ax",%progbits
  46              		.align	2
  47              		.global	fisr_CONT
  48              		.thumb
  49              		.thumb_func
  50              		.type	fisr_CONT, %function
  51              	fisr_CONT:
  52              	.LFB65:
 100:main.c        **** }
 101:main.c        **** CY_ISR_PROTO(fisr_CONT){
  53              		.loc 1 101 0
  54              		.cfi_startproc
  55              		@ args = 0, pretend = 0, frame = 0
  56              		@ frame_needed = 0, uses_anonymous_args = 0
  57              		@ link register save eliminated.
 102:main.c        ****     bandCont=1;
  58              		.loc 1 102 0
  59 0000 0122     		movs	r2, #1
  60 0002 014B     		ldr	r3, .L5
  61 0004 5A70     		strb	r2, [r3, #1]
  62 0006 7047     		bx	lr
  63              	.L6:
  64              		.align	2
  65              	.L5:
  66 0008 00000000 		.word	.LANCHOR0
  67              		.cfi_endproc
  68              	.LFE65:
  69              		.size	fisr_CONT, .-fisr_CONT
ARM GAS  C:\Users\PYBL\AppData\Local\Temp\ccJ1nofP.s 			page 4


  70              		.section	.text.main,"ax",%progbits
  71              		.align	2
  72              		.global	main
  73              		.thumb
  74              		.thumb_func
  75              		.type	main, %function
  76              	main:
  77              	.LFB63:
  28:main.c        ****     Teclado_Start();
  78              		.loc 1 28 0
  79              		.cfi_startproc
  80              		@ Volatile: function does not return.
  81              		@ args = 0, pretend = 0, frame = 0
  82              		@ frame_needed = 0, uses_anonymous_args = 0
  83 0000 08B5     		push	{r3, lr}
  84              		.cfi_def_cfa_offset 8
  85              		.cfi_offset 3, -8
  86              		.cfi_offset 14, -4
  29:main.c        ****     LCD_Start();
  87              		.loc 1 29 0
  88 0002 FFF7FEFF 		bl	Teclado_Start
  89              	.LVL0:
  30:main.c        ****     Counter_Start();
  90              		.loc 1 30 0
  91 0006 FFF7FEFF 		bl	LCD_Start
  92              	.LVL1:
  31:main.c        ****     isrTEC_StartEx(fisr_Teclado);
  93              		.loc 1 31 0
  94 000a FFF7FEFF 		bl	Counter_Start
  95              	.LVL2:
  32:main.c        ****     isrCONT_StartEx(fisr_CONT);
  96              		.loc 1 32 0
  97 000e 4848     		ldr	r0, .L18
  98 0010 FFF7FEFF 		bl	isrTEC_StartEx
  99              	.LVL3:
  33:main.c        ****     CyGlobalIntEnable;
 100              		.loc 1 33 0
 101 0014 4748     		ldr	r0, .L18+4
 102 0016 FFF7FEFF 		bl	isrCONT_StartEx
 103              	.LVL4:
  34:main.c        ****   
 104              		.loc 1 34 0
 105              		.syntax unified
 106              	@ 34 "main.c" 1
 107 001a 62B6     		CPSIE   i
 108              	@ 0 "" 2
 109              		.thumb
 110              		.syntax unified
 111              	.L10:
  38:main.c        ****             bandCont=0;
 112              		.loc 1 38 0
 113 001c 464B     		ldr	r3, .L18+8
 114 001e 5B78     		ldrb	r3, [r3, #1]	@ zero_extendqisi2
 115 0020 33B3     		cbz	r3, .L8
  39:main.c        ****             mili++;
 116              		.loc 1 39 0
 117 0022 454B     		ldr	r3, .L18+8
ARM GAS  C:\Users\PYBL\AppData\Local\Temp\ccJ1nofP.s 			page 5


 118 0024 0022     		movs	r2, #0
 119 0026 5A70     		strb	r2, [r3, #1]
  40:main.c        ****             if(mili%1000==0){
 120              		.loc 1 40 0
 121 0028 5A68     		ldr	r2, [r3, #4]
 122 002a 0132     		adds	r2, r2, #1
 123 002c 5A60     		str	r2, [r3, #4]
  41:main.c        ****                 seg++;
 124              		.loc 1 41 0
 125 002e 434B     		ldr	r3, .L18+12
 126 0030 A3FB0213 		umull	r1, r3, r3, r2
 127 0034 9B09     		lsrs	r3, r3, #6
 128 0036 4FF47A71 		mov	r1, #1000
 129 003a 01FB1323 		mls	r3, r1, r3, r2
 130 003e 53B9     		cbnz	r3, .L9
  42:main.c        ****                 LCD_Position(3,0);
 131              		.loc 1 42 0
 132 0040 3D4C     		ldr	r4, .L18+8
 133 0042 A368     		ldr	r3, [r4, #8]
 134 0044 0133     		adds	r3, r3, #1
 135 0046 A360     		str	r3, [r4, #8]
  43:main.c        ****                 LCD_PrintNumber(seg);
 136              		.loc 1 43 0
 137 0048 0021     		movs	r1, #0
 138 004a 0320     		movs	r0, #3
 139 004c FFF7FEFF 		bl	LCD_Position
 140              	.LVL5:
  44:main.c        ****             }
 141              		.loc 1 44 0
 142 0050 2089     		ldrh	r0, [r4, #8]
 143 0052 FFF7FEFF 		bl	LCD_PrintU32Number
 144              	.LVL6:
 145              	.L9:
  47:main.c        ****                 lugar++;
 146              		.loc 1 47 0
 147 0056 384B     		ldr	r3, .L18+8
 148 0058 5A68     		ldr	r2, [r3, #4]
 149 005a 41F28833 		movw	r3, #5000
 150 005e 9A42     		cmp	r2, r3
 151 0060 06D1     		bne	.L8
  48:main.c        ****                 mili=0;
 152              		.loc 1 48 0
 153 0062 354B     		ldr	r3, .L18+8
 154 0064 1A7B     		ldrb	r2, [r3, #12]	@ zero_extendqisi2
 155 0066 0132     		adds	r2, r2, #1
 156 0068 1A73     		strb	r2, [r3, #12]
  49:main.c        ****                 seg=0;
 157              		.loc 1 49 0
 158 006a 0022     		movs	r2, #0
 159 006c 5A60     		str	r2, [r3, #4]
  50:main.c        ****             }
 160              		.loc 1 50 0
 161 006e 9A60     		str	r2, [r3, #8]
 162              	.L8:
  54:main.c        ****             bandTec=0;
 163              		.loc 1 54 0
 164 0070 314B     		ldr	r3, .L18+8
ARM GAS  C:\Users\PYBL\AppData\Local\Temp\ccJ1nofP.s 			page 6


 165 0072 1B78     		ldrb	r3, [r3]	@ zero_extendqisi2
 166 0074 002B     		cmp	r3, #0
 167 0076 D1D0     		beq	.L10
  55:main.c        ****             tinsta=Teclado_AsignarTecla();
 168              		.loc 1 55 0
 169 0078 2F4C     		ldr	r4, .L18+8
 170 007a 0025     		movs	r5, #0
 171 007c 2570     		strb	r5, [r4]
  56:main.c        ****             pulsaciones++;
 172              		.loc 1 56 0
 173 007e FFF7FEFF 		bl	Teclado_AsignarTecla
 174              	.LVL7:
 175 0082 6073     		strb	r0, [r4, #13]
  57:main.c        ****             
 176              		.loc 1 57 0
 177 0084 A37B     		ldrb	r3, [r4, #14]	@ zero_extendqisi2
 178 0086 0133     		adds	r3, r3, #1
 179 0088 A373     		strb	r3, [r4, #14]
  59:main.c        ****             if(tinsta=='7'){
 180              		.loc 1 59 0
 181 008a 6560     		str	r5, [r4, #4]
  60:main.c        ****                 LCD_Position(0,lugar);
 182              		.loc 1 60 0
 183 008c 3728     		cmp	r0, #55
 184 008e 0FD1     		bne	.L11
  61:main.c        ****                 LCD_PutChar(KEY[6][pulsaciones-1]);
 185              		.loc 1 61 0
 186 0090 217B     		ldrb	r1, [r4, #12]	@ zero_extendqisi2
 187 0092 2846     		mov	r0, r5
 188 0094 FFF7FEFF 		bl	LCD_Position
 189              	.LVL8:
  62:main.c        ****                 if(pulsaciones==3){
 190              		.loc 1 62 0
 191 0098 A37B     		ldrb	r3, [r4, #14]	@ zero_extendqisi2
 192 009a 013B     		subs	r3, r3, #1
 193 009c 284A     		ldr	r2, .L18+16
 194 009e 1344     		add	r3, r3, r2
 195 00a0 987C     		ldrb	r0, [r3, #18]	@ zero_extendqisi2
 196 00a2 FFF7FEFF 		bl	LCD_PutChar
 197              	.LVL9:
  63:main.c        ****                     pulsaciones=0;
 198              		.loc 1 63 0
 199 00a6 A37B     		ldrb	r3, [r4, #14]	@ zero_extendqisi2
 200 00a8 032B     		cmp	r3, #3
 201 00aa 01D1     		bne	.L11
  64:main.c        ****                 }
 202              		.loc 1 64 0
 203 00ac 2346     		mov	r3, r4
 204 00ae 9D73     		strb	r5, [r3, #14]
 205              	.L11:
  67:main.c        ****                 LCD_Position(0,lugar);
 206              		.loc 1 67 0
 207 00b0 214B     		ldr	r3, .L18+8
 208 00b2 5B7B     		ldrb	r3, [r3, #13]	@ zero_extendqisi2
 209 00b4 342B     		cmp	r3, #52
 210 00b6 10D1     		bne	.L12
  68:main.c        ****                 LCD_PutChar(KEY[3][pulsaciones-1]);
ARM GAS  C:\Users\PYBL\AppData\Local\Temp\ccJ1nofP.s 			page 7


 211              		.loc 1 68 0
 212 00b8 1F4C     		ldr	r4, .L18+8
 213 00ba 217B     		ldrb	r1, [r4, #12]	@ zero_extendqisi2
 214 00bc 0020     		movs	r0, #0
 215 00be FFF7FEFF 		bl	LCD_Position
 216              	.LVL10:
  69:main.c        ****                 if(pulsaciones==3){
 217              		.loc 1 69 0
 218 00c2 A37B     		ldrb	r3, [r4, #14]	@ zero_extendqisi2
 219 00c4 013B     		subs	r3, r3, #1
 220 00c6 1E4A     		ldr	r2, .L18+16
 221 00c8 1344     		add	r3, r3, r2
 222 00ca 587A     		ldrb	r0, [r3, #9]	@ zero_extendqisi2
 223 00cc FFF7FEFF 		bl	LCD_PutChar
 224              	.LVL11:
  70:main.c        ****                     pulsaciones=0;
 225              		.loc 1 70 0
 226 00d0 A37B     		ldrb	r3, [r4, #14]	@ zero_extendqisi2
 227 00d2 032B     		cmp	r3, #3
 228 00d4 01D1     		bne	.L12
  71:main.c        ****                 }
 229              		.loc 1 71 0
 230 00d6 0022     		movs	r2, #0
 231 00d8 A273     		strb	r2, [r4, #14]
 232              	.L12:
  74:main.c        ****                 LCD_Position(0,lugar);
 233              		.loc 1 74 0
 234 00da 174B     		ldr	r3, .L18+8
 235 00dc 5B7B     		ldrb	r3, [r3, #13]	@ zero_extendqisi2
 236 00de 312B     		cmp	r3, #49
 237 00e0 0FD1     		bne	.L13
  75:main.c        ****                 LCD_PutChar(KEY[0][pulsaciones-1]);
 238              		.loc 1 75 0
 239 00e2 154C     		ldr	r4, .L18+8
 240 00e4 217B     		ldrb	r1, [r4, #12]	@ zero_extendqisi2
 241 00e6 0020     		movs	r0, #0
 242 00e8 FFF7FEFF 		bl	LCD_Position
 243              	.LVL12:
  76:main.c        ****                 if(pulsaciones==3){
 244              		.loc 1 76 0
 245 00ec A37B     		ldrb	r3, [r4, #14]	@ zero_extendqisi2
 246 00ee 013B     		subs	r3, r3, #1
 247 00f0 134A     		ldr	r2, .L18+16
 248 00f2 D05C     		ldrb	r0, [r2, r3]	@ zero_extendqisi2
 249 00f4 FFF7FEFF 		bl	LCD_PutChar
 250              	.LVL13:
  77:main.c        ****                     pulsaciones=0;
 251              		.loc 1 77 0
 252 00f8 A37B     		ldrb	r3, [r4, #14]	@ zero_extendqisi2
 253 00fa 032B     		cmp	r3, #3
 254 00fc 01D1     		bne	.L13
  78:main.c        ****                 }
 255              		.loc 1 78 0
 256 00fe 0022     		movs	r2, #0
 257 0100 A273     		strb	r2, [r4, #14]
 258              	.L13:
  81:main.c        ****                 LCD_Position(0,lugar);
ARM GAS  C:\Users\PYBL\AppData\Local\Temp\ccJ1nofP.s 			page 8


 259              		.loc 1 81 0
 260 0102 0D4B     		ldr	r3, .L18+8
 261 0104 5B7B     		ldrb	r3, [r3, #13]	@ zero_extendqisi2
 262 0106 2A2B     		cmp	r3, #42
 263 0108 88D1     		bne	.L10
  82:main.c        ****                 LCD_PutChar(KEY[5][pulsaciones-1]);
 264              		.loc 1 82 0
 265 010a 0B4C     		ldr	r4, .L18+8
 266 010c 217B     		ldrb	r1, [r4, #12]	@ zero_extendqisi2
 267 010e 0020     		movs	r0, #0
 268 0110 FFF7FEFF 		bl	LCD_Position
 269              	.LVL14:
  83:main.c        ****                 if(pulsaciones==3){
 270              		.loc 1 83 0
 271 0114 A37B     		ldrb	r3, [r4, #14]	@ zero_extendqisi2
 272 0116 013B     		subs	r3, r3, #1
 273 0118 094A     		ldr	r2, .L18+16
 274 011a 1344     		add	r3, r3, r2
 275 011c D87B     		ldrb	r0, [r3, #15]	@ zero_extendqisi2
 276 011e FFF7FEFF 		bl	LCD_PutChar
 277              	.LVL15:
  84:main.c        ****                     pulsaciones=0;
 278              		.loc 1 84 0
 279 0122 A37B     		ldrb	r3, [r4, #14]	@ zero_extendqisi2
 280 0124 032B     		cmp	r3, #3
 281 0126 7FF479AF 		bne	.L10
  85:main.c        ****                 }
 282              		.loc 1 85 0
 283 012a 0022     		movs	r2, #0
 284 012c A273     		strb	r2, [r4, #14]
 285 012e 75E7     		b	.L10
 286              	.L19:
 287              		.align	2
 288              	.L18:
 289 0130 00000000 		.word	fisr_Teclado
 290 0134 00000000 		.word	fisr_CONT
 291 0138 00000000 		.word	.LANCHOR0
 292 013c D34D6210 		.word	274877907
 293 0140 00000000 		.word	.LANCHOR1
 294              		.cfi_endproc
 295              	.LFE63:
 296              		.size	main, .-main
 297              		.global	KEY
 298              		.global	seg
 299              		.global	mili
 300              		.global	lugar
 301              		.global	pulsaciones
 302              		.global	tinsta
 303              		.global	bandCont
 304              		.global	bandTec
 305              		.data
 306              		.align	2
 307              		.set	.LANCHOR1,. + 0
 308              		.type	KEY, %object
 309              		.size	KEY, 27
 310              	KEY:
 311 0000 41       		.byte	65
ARM GAS  C:\Users\PYBL\AppData\Local\Temp\ccJ1nofP.s 			page 9


 312 0001 42       		.byte	66
 313 0002 43       		.byte	67
 314 0003 44       		.byte	68
 315 0004 45       		.byte	69
 316 0005 46       		.byte	70
 317 0006 47       		.byte	71
 318 0007 48       		.byte	72
 319 0008 49       		.byte	73
 320 0009 4A       		.byte	74
 321 000a 4B       		.byte	75
 322 000b 4C       		.byte	76
 323 000c 4D       		.byte	77
 324 000d 4E       		.byte	78
 325 000e 4F       		.byte	79
 326 000f 50       		.byte	80
 327 0010 51       		.byte	81
 328 0011 52       		.byte	82
 329 0012 53       		.byte	83
 330 0013 54       		.byte	84
 331 0014 55       		.byte	85
 332 0015 56       		.byte	86
 333 0016 57       		.byte	87
 334 0017 58       		.byte	88
 335 0018 59       		.byte	89
 336 0019 5A       		.byte	90
 337 001a 20       		.byte	32
 338              		.bss
 339              		.align	2
 340              		.set	.LANCHOR0,. + 0
 341              		.type	bandTec, %object
 342              		.size	bandTec, 1
 343              	bandTec:
 344 0000 00       		.space	1
 345              		.type	bandCont, %object
 346              		.size	bandCont, 1
 347              	bandCont:
 348 0001 00       		.space	1
 349 0002 0000     		.space	2
 350              		.type	mili, %object
 351              		.size	mili, 4
 352              	mili:
 353 0004 00000000 		.space	4
 354              		.type	seg, %object
 355              		.size	seg, 4
 356              	seg:
 357 0008 00000000 		.space	4
 358              		.type	lugar, %object
 359              		.size	lugar, 1
 360              	lugar:
 361 000c 00       		.space	1
 362              		.type	tinsta, %object
 363              		.size	tinsta, 1
 364              	tinsta:
 365 000d 00       		.space	1
 366              		.type	pulsaciones, %object
 367              		.size	pulsaciones, 1
 368              	pulsaciones:
ARM GAS  C:\Users\PYBL\AppData\Local\Temp\ccJ1nofP.s 			page 10


 369 000e 00       		.space	1
 370              		.text
 371              	.Letext0:
 372              		.file 2 "c:\\program files (x86)\\cypress\\psoc creator\\4.4\\psoc creator\\import\\gnu\\arm\\5.4.
 373              		.file 3 "c:\\program files (x86)\\cypress\\psoc creator\\4.4\\psoc creator\\import\\gnu\\arm\\5.4.
 374              		.file 4 "Generated_Source\\PSoC5/cytypes.h"
 375              		.file 5 "Generated_Source\\PSoC5/core_cm3.h"
 376              		.file 6 "Generated_Source\\PSoC5/Teclado_Teclado.h"
 377              		.file 7 "Generated_Source\\PSoC5/LCD.h"
 378              		.file 8 "Generated_Source\\PSoC5/Counter.h"
 379              		.file 9 "Generated_Source\\PSoC5/isrTEC.h"
 380              		.file 10 "Generated_Source\\PSoC5/isrCONT.h"