ARM GAS  C:\Users\PYBL\AppData\Local\Temp\cc4r6UPT.s 			page 1


   1              		.syntax unified
   2              		.cpu cortex-m3
   3              		.fpu softvfp
   4              		.eabi_attribute 20, 1
   5              		.eabi_attribute 21, 1
   6              		.eabi_attribute 23, 3
   7              		.eabi_attribute 24, 1
   8              		.eabi_attribute 25, 1
   9              		.eabi_attribute 26, 1
  10              		.eabi_attribute 30, 1
  11              		.eabi_attribute 34, 1
  12              		.eabi_attribute 18, 4
  13              		.thumb
  14              		.syntax unified
  15              		.file	"Teclado_Teclado.c"
  16              		.text
  17              	.Ltext0:
  18              		.cfi_sections	.debug_frame
  19              		.section	.text.Teclado_AsignarTecla,"ax",%progbits
  20              		.align	2
  21              		.global	Teclado_AsignarTecla
  22              		.thumb
  23              		.thumb_func
  24              		.type	Teclado_AsignarTecla, %function
  25              	Teclado_AsignarTecla:
  26              	.LFB63:
  27              		.file 1 "Generated_Source\\PSoC5\\Teclado_Teclado.c"
   1:Generated_Source\PSoC5/Teclado_Teclado.c **** /* ========================================
   2:Generated_Source\PSoC5/Teclado_Teclado.c ****  *
   3:Generated_Source\PSoC5/Teclado_Teclado.c ****  * Copyright YOUR COMPANY, THE YEAR
   4:Generated_Source\PSoC5/Teclado_Teclado.c ****  * All Rights Reserved
   5:Generated_Source\PSoC5/Teclado_Teclado.c ****  * UNPUBLISHED, LICENSED SOFTWARE.
   6:Generated_Source\PSoC5/Teclado_Teclado.c ****  *
   7:Generated_Source\PSoC5/Teclado_Teclado.c ****  * CONFIDENTIAL AND PROPRIETARY INFORMATION
   8:Generated_Source\PSoC5/Teclado_Teclado.c ****  * WHICH IS THE PROPERTY OF your company.
   9:Generated_Source\PSoC5/Teclado_Teclado.c ****  *
  10:Generated_Source\PSoC5/Teclado_Teclado.c ****  * ========================================
  11:Generated_Source\PSoC5/Teclado_Teclado.c **** */
  12:Generated_Source\PSoC5/Teclado_Teclado.c **** 
  13:Generated_Source\PSoC5/Teclado_Teclado.c **** #include "project.h"
  14:Generated_Source\PSoC5/Teclado_Teclado.c **** 
  15:Generated_Source\PSoC5/Teclado_Teclado.c **** uint8 Teclado_AsignarTecla(void)
  16:Generated_Source\PSoC5/Teclado_Teclado.c **** {
  28              		.loc 1 16 0
  29              		.cfi_startproc
  30              		@ args = 0, pretend = 0, frame = 16
  31              		@ frame_needed = 0, uses_anonymous_args = 0
  32 0000 30B5     		push	{r4, r5, lr}
  33              		.cfi_def_cfa_offset 12
  34              		.cfi_offset 4, -12
  35              		.cfi_offset 5, -8
  36              		.cfi_offset 14, -4
  37 0002 85B0     		sub	sp, sp, #20
  38              		.cfi_def_cfa_offset 32
  17:Generated_Source\PSoC5/Teclado_Teclado.c ****     uint8 Teclado_Key[4][4] = {
  39              		.loc 1 17 0
  40 0004 144B     		ldr	r3, .L3
ARM GAS  C:\Users\PYBL\AppData\Local\Temp\cc4r6UPT.s 			page 2


  41 0006 6C46     		mov	r4, sp
  42 0008 1868     		ldr	r0, [r3]	@ unaligned
  43 000a 5968     		ldr	r1, [r3, #4]	@ unaligned
  44 000c 9A68     		ldr	r2, [r3, #8]	@ unaligned
  45 000e DB68     		ldr	r3, [r3, #12]	@ unaligned
  46 0010 0FC4     		stmia	r4!, {r0, r1, r2, r3}
  18:Generated_Source\PSoC5/Teclado_Teclado.c **** 		{'1','2','3','A'},//Row 1
  19:Generated_Source\PSoC5/Teclado_Teclado.c **** 		{'4','5','6','B'},//Row 2
  20:Generated_Source\PSoC5/Teclado_Teclado.c **** 		{'7','8','9','C'},//Row 3
  21:Generated_Source\PSoC5/Teclado_Teclado.c **** 		{'*','0','#','D'}//Row 4
  22:Generated_Source\PSoC5/Teclado_Teclado.c ****   	};
  23:Generated_Source\PSoC5/Teclado_Teclado.c ****     
  24:Generated_Source\PSoC5/Teclado_Teclado.c **** 	uint8 Button;
  25:Generated_Source\PSoC5/Teclado_Teclado.c **** 	uint8 fila,columna;
  26:Generated_Source\PSoC5/Teclado_Teclado.c **** 
  27:Generated_Source\PSoC5/Teclado_Teclado.c **** 	fila = (Teclado_Status_Reg_Read() & 0b11); //Row extract
  47              		.loc 1 27 0
  48 0012 FFF7FEFF 		bl	Teclado_Status_Reg_Read
  49              	.LVL0:
  50 0016 00F00304 		and	r4, r0, #3
  51              	.LVL1:
  28:Generated_Source\PSoC5/Teclado_Teclado.c ****     //Search for row
  29:Generated_Source\PSoC5/Teclado_Teclado.c ****     Teclado_Columns_Write(0b1111);
  52              		.loc 1 29 0
  53 001a 0F20     		movs	r0, #15
  54 001c FFF7FEFF 		bl	Teclado_Columns_Write
  55              	.LVL2:
  30:Generated_Source\PSoC5/Teclado_Teclado.c ****     Teclado_Rows_Write(0b0000);
  56              		.loc 1 30 0
  57 0020 0020     		movs	r0, #0
  58 0022 FFF7FEFF 		bl	Teclado_Rows_Write
  59              	.LVL3:
  31:Generated_Source\PSoC5/Teclado_Teclado.c ****      CyDelayUs(10);
  60              		.loc 1 31 0
  61 0026 0A20     		movs	r0, #10
  62 0028 FFF7FEFF 		bl	CyDelayUs
  63              	.LVL4:
  32:Generated_Source\PSoC5/Teclado_Teclado.c ****     
  33:Generated_Source\PSoC5/Teclado_Teclado.c ****     columna = ((Teclado_Status_Reg_Read() & 0b1100) >> 2);
  64              		.loc 1 33 0
  65 002c FFF7FEFF 		bl	Teclado_Status_Reg_Read
  66              	.LVL5:
  67 0030 C0F38105 		ubfx	r5, r0, #2, #2
  68              	.LVL6:
  34:Generated_Source\PSoC5/Teclado_Teclado.c ****     //Back to normal
  35:Generated_Source\PSoC5/Teclado_Teclado.c ****     Teclado_Rows_Write(0b1111);
  69              		.loc 1 35 0
  70 0034 0F20     		movs	r0, #15
  71 0036 FFF7FEFF 		bl	Teclado_Rows_Write
  72              	.LVL7:
  36:Generated_Source\PSoC5/Teclado_Teclado.c ****     Teclado_Columns_Write(0b0000);
  73              		.loc 1 36 0
  74 003a 0020     		movs	r0, #0
  75 003c FFF7FEFF 		bl	Teclado_Columns_Write
  76              	.LVL8:
  37:Generated_Source\PSoC5/Teclado_Teclado.c ****     CyDelayUs(10);
  77              		.loc 1 37 0
ARM GAS  C:\Users\PYBL\AppData\Local\Temp\cc4r6UPT.s 			page 3


  78 0040 0A20     		movs	r0, #10
  79 0042 FFF7FEFF 		bl	CyDelayUs
  80              	.LVL9:
  38:Generated_Source\PSoC5/Teclado_Teclado.c ****     
  39:Generated_Source\PSoC5/Teclado_Teclado.c **** 	Button=Teclado_Key[fila][columna];//Assign Character
  81              		.loc 1 39 0
  82 0046 04AB     		add	r3, sp, #16
  83 0048 03EB8404 		add	r4, r3, r4, lsl #2
  84              	.LVL10:
  85 004c 2C44     		add	r4, r4, r5
  86              	.LVL11:
  40:Generated_Source\PSoC5/Teclado_Teclado.c **** 	return Button;
  41:Generated_Source\PSoC5/Teclado_Teclado.c **** }
  87              		.loc 1 41 0
  88 004e 14F8100C 		ldrb	r0, [r4, #-16]	@ zero_extendqisi2
  89 0052 05B0     		add	sp, sp, #20
  90              		.cfi_def_cfa_offset 12
  91              		@ sp needed
  92 0054 30BD     		pop	{r4, r5, pc}
  93              	.LVL12:
  94              	.L4:
  95 0056 00BF     		.align	2
  96              	.L3:
  97 0058 00000000 		.word	.LANCHOR0
  98              		.cfi_endproc
  99              	.LFE63:
 100              		.size	Teclado_AsignarTecla, .-Teclado_AsignarTecla
 101              		.section	.text.Teclado_AsignarTeclaExtern,"ax",%progbits
 102              		.align	2
 103              		.global	Teclado_AsignarTeclaExtern
 104              		.thumb
 105              		.thumb_func
 106              		.type	Teclado_AsignarTeclaExtern, %function
 107              	Teclado_AsignarTeclaExtern:
 108              	.LFB64:
  42:Generated_Source\PSoC5/Teclado_Teclado.c **** 
  43:Generated_Source\PSoC5/Teclado_Teclado.c **** uint8 Teclado_AsignarTeclaExtern(const int matriz[4][4])
  44:Generated_Source\PSoC5/Teclado_Teclado.c **** {
 109              		.loc 1 44 0
 110              		.cfi_startproc
 111              		@ args = 0, pretend = 0, frame = 0
 112              		@ frame_needed = 0, uses_anonymous_args = 0
 113              	.LVL13:
 114 0000 70B5     		push	{r4, r5, r6, lr}
 115              		.cfi_def_cfa_offset 16
 116              		.cfi_offset 4, -16
 117              		.cfi_offset 5, -12
 118              		.cfi_offset 6, -8
 119              		.cfi_offset 14, -4
 120 0002 0446     		mov	r4, r0
  45:Generated_Source\PSoC5/Teclado_Teclado.c ****     uint8 Button;
  46:Generated_Source\PSoC5/Teclado_Teclado.c **** 	uint8 fila,columna;
  47:Generated_Source\PSoC5/Teclado_Teclado.c **** 
  48:Generated_Source\PSoC5/Teclado_Teclado.c **** 	fila = (Teclado_Status_Reg_Read() & 0b11); //Row extract
 121              		.loc 1 48 0
 122 0004 FFF7FEFF 		bl	Teclado_Status_Reg_Read
 123              	.LVL14:
ARM GAS  C:\Users\PYBL\AppData\Local\Temp\cc4r6UPT.s 			page 4


 124 0008 00F00306 		and	r6, r0, #3
 125              	.LVL15:
  49:Generated_Source\PSoC5/Teclado_Teclado.c ****     //Search for row
  50:Generated_Source\PSoC5/Teclado_Teclado.c ****     Teclado_Columns_Write(0b1111);
 126              		.loc 1 50 0
 127 000c 0F20     		movs	r0, #15
 128 000e FFF7FEFF 		bl	Teclado_Columns_Write
 129              	.LVL16:
  51:Generated_Source\PSoC5/Teclado_Teclado.c ****     Teclado_Rows_Write(0b0000);
 130              		.loc 1 51 0
 131 0012 0020     		movs	r0, #0
 132 0014 FFF7FEFF 		bl	Teclado_Rows_Write
 133              	.LVL17:
  52:Generated_Source\PSoC5/Teclado_Teclado.c ****      CyDelayUs(10);
 134              		.loc 1 52 0
 135 0018 0A20     		movs	r0, #10
 136 001a FFF7FEFF 		bl	CyDelayUs
 137              	.LVL18:
  53:Generated_Source\PSoC5/Teclado_Teclado.c ****     
  54:Generated_Source\PSoC5/Teclado_Teclado.c ****     columna = ((Teclado_Status_Reg_Read() & 0b1100) >> 2);
 138              		.loc 1 54 0
 139 001e FFF7FEFF 		bl	Teclado_Status_Reg_Read
 140              	.LVL19:
 141 0022 C0F38105 		ubfx	r5, r0, #2, #2
 142              	.LVL20:
  55:Generated_Source\PSoC5/Teclado_Teclado.c ****     //Back to normal
  56:Generated_Source\PSoC5/Teclado_Teclado.c ****     Teclado_Rows_Write(0b1111);
 143              		.loc 1 56 0
 144 0026 0F20     		movs	r0, #15
 145 0028 FFF7FEFF 		bl	Teclado_Rows_Write
 146              	.LVL21:
  57:Generated_Source\PSoC5/Teclado_Teclado.c ****     Teclado_Columns_Write(0b0000);
 147              		.loc 1 57 0
 148 002c 0020     		movs	r0, #0
 149 002e FFF7FEFF 		bl	Teclado_Columns_Write
 150              	.LVL22:
  58:Generated_Source\PSoC5/Teclado_Teclado.c ****     CyDelayUs(10);
 151              		.loc 1 58 0
 152 0032 0A20     		movs	r0, #10
 153 0034 FFF7FEFF 		bl	CyDelayUs
 154              	.LVL23:
  59:Generated_Source\PSoC5/Teclado_Teclado.c ****     
  60:Generated_Source\PSoC5/Teclado_Teclado.c **** 	Button=matriz[fila][columna];//Assign Character
 155              		.loc 1 60 0
 156 0038 04EB0614 		add	r4, r4, r6, lsl #4
 157              	.LVL24:
  61:Generated_Source\PSoC5/Teclado_Teclado.c **** 	return Button;
  62:Generated_Source\PSoC5/Teclado_Teclado.c **** }
 158              		.loc 1 62 0
 159 003c 14F82500 		ldrb	r0, [r4, r5, lsl #2]	@ zero_extendqisi2
 160 0040 70BD     		pop	{r4, r5, r6, pc}
 161              		.cfi_endproc
 162              	.LFE64:
 163              		.size	Teclado_AsignarTeclaExtern, .-Teclado_AsignarTeclaExtern
 164 0042 00BF     		.section	.text.Teclado_Start,"ax",%progbits
 165              		.align	2
 166              		.global	Teclado_Start
ARM GAS  C:\Users\PYBL\AppData\Local\Temp\cc4r6UPT.s 			page 5


 167              		.thumb
 168              		.thumb_func
 169              		.type	Teclado_Start, %function
 170              	Teclado_Start:
 171              	.LFB65:
  63:Generated_Source\PSoC5/Teclado_Teclado.c **** 
  64:Generated_Source\PSoC5/Teclado_Teclado.c **** 
  65:Generated_Source\PSoC5/Teclado_Teclado.c **** void Teclado_Start(void){
 172              		.loc 1 65 0
 173              		.cfi_startproc
 174              		@ args = 0, pretend = 0, frame = 0
 175              		@ frame_needed = 0, uses_anonymous_args = 0
 176 0000 08B5     		push	{r3, lr}
 177              		.cfi_def_cfa_offset 8
 178              		.cfi_offset 3, -8
 179              		.cfi_offset 14, -4
  66:Generated_Source\PSoC5/Teclado_Teclado.c ****     Teclado_Rows_Write(0b1111);
 180              		.loc 1 66 0
 181 0002 0F20     		movs	r0, #15
 182 0004 FFF7FEFF 		bl	Teclado_Rows_Write
 183              	.LVL25:
  67:Generated_Source\PSoC5/Teclado_Teclado.c ****     Teclado_Columns_Write(0b0000);
 184              		.loc 1 67 0
 185 0008 0020     		movs	r0, #0
 186 000a FFF7FEFF 		bl	Teclado_Columns_Write
 187              	.LVL26:
 188 000e 08BD     		pop	{r3, pc}
 189              		.cfi_endproc
 190              	.LFE65:
 191              		.size	Teclado_Start, .-Teclado_Start
 192              		.section	.rodata
 193              		.align	2
 194              		.set	.LANCHOR0,. + 0
 195              	.LC0:
 196 0000 31       		.byte	49
 197 0001 32       		.byte	50
 198 0002 33       		.byte	51
 199 0003 41       		.byte	65
 200 0004 34       		.byte	52
 201 0005 35       		.byte	53
 202 0006 36       		.byte	54
 203 0007 42       		.byte	66
 204 0008 37       		.byte	55
 205 0009 38       		.byte	56
 206 000a 39       		.byte	57
 207 000b 43       		.byte	67
 208 000c 2A       		.byte	42
 209 000d 30       		.byte	48
 210 000e 23       		.byte	35
 211 000f 44       		.byte	68
 212              		.text
 213              	.Letext0:
 214              		.file 2 "c:\\program files (x86)\\cypress\\psoc creator\\4.4\\psoc creator\\import\\gnu\\arm\\5.4.
 215              		.file 3 "c:\\program files (x86)\\cypress\\psoc creator\\4.4\\psoc creator\\import\\gnu\\arm\\5.4.
 216              		.file 4 "Generated_Source\\PSoC5\\cytypes.h"
 217              		.file 5 "Generated_Source\\PSoC5\\Teclado_Status_Reg.h"
 218              		.file 6 "Generated_Source\\PSoC5\\Teclado_Columns.h"
ARM GAS  C:\Users\PYBL\AppData\Local\Temp\cc4r6UPT.s 			page 6


 219              		.file 7 "Generated_Source\\PSoC5\\Teclado_Rows.h"
 220              		.file 8 "Generated_Source\\PSoC5\\CyLib.h"
 221              		.file 9 "Generated_Source\\PSoC5/core_cm3.h"